target datalayout = "e-m:e-p270:32:32-p271:32:32-p272:64:64-i64:64-i128:128-f80:128-n8:16:32:64-S128"
target triple = "x86_64-pc-linux-gnu"

%struct.ocsp_cert_id_st = type { %struct.X509_algor_st, %struct.asn1_string_st, %struct.asn1_string_st, %struct.asn1_string_st }
%struct.X509_algor_st = type { ptr, ptr }
%struct.asn1_string_st = type { i32, i32, ptr, i64 }
%struct.asn1_type_st = type { i32, %union.anon }
%union.anon = type { ptr }

@.str = private unnamed_addr constant [34 x i8] c"../openssl/crypto/ocsp/ocsp_lib.c\00", align 1
@__func__.OCSP_cert_id_new = private unnamed_addr constant [17 x i8] c"OCSP_cert_id_new\00", align 1

; Function Attrs: nounwind uwtable
define ptr @OCSP_cert_id_new(ptr noundef %0, ptr noundef %1, ptr noundef %2, ptr noundef %3) #0 {
  %5 = alloca ptr, align 8
  %6 = alloca ptr, align 8
  %7 = alloca ptr, align 8
  %8 = alloca ptr, align 8
  %9 = alloca ptr, align 8
  %10 = alloca i32, align 4
  %11 = alloca i32, align 4
  %12 = alloca ptr, align 8
  %13 = alloca ptr, align 8
  %14 = alloca [64 x i8], align 16
  %15 = alloca i32, align 4
  store ptr %0, ptr %6, align 8, !tbaa !3
  store ptr %1, ptr %7, align 8, !tbaa !10
  store ptr %2, ptr %8, align 8, !tbaa !12
  store ptr %3, ptr %9, align 8, !tbaa !12
  call void @llvm.lifetime.start.p0(i64 4, ptr %10) #3
  call void @llvm.lifetime.start.p0(i64 4, ptr %11) #3
  call void @llvm.lifetime.start.p0(i64 8, ptr %12) #3
  call void @llvm.lifetime.start.p0(i64 8, ptr %13) #3
  store ptr null, ptr %13, align 8, !tbaa !14
  call void @llvm.lifetime.start.p0(i64 64, ptr %14) #3
  %16 = call ptr @OCSP_CERTID_new()
  store ptr %16, ptr %13, align 8, !tbaa !14
  %17 = icmp eq ptr %16, null
  br i1 %17, label %18, label %19

18:                                               ; preds = %4
  br label %96

19:                                               ; preds = %4
  %20 = load ptr, ptr %13, align 8, !tbaa !14
  %21 = getelementptr inbounds nuw %struct.ocsp_cert_id_st, ptr %20, i32 0, i32 0
  store ptr %21, ptr %12, align 8, !tbaa !16
  %22 = load ptr, ptr %12, align 8, !tbaa !16
  %23 = getelementptr inbounds nuw %struct.X509_algor_st, ptr %22, i32 0, i32 0
  %24 = load ptr, ptr %23, align 8, !tbaa !18
  call void @ASN1_OBJECT_free(ptr noundef %24)
  %25 = load ptr, ptr %6, align 8, !tbaa !3
  %26 = call i32 @EVP_MD_get_type(ptr noundef %25)
  store i32 %26, ptr %10, align 4, !tbaa !22
  %27 = icmp eq i32 %26, 0
  br i1 %27, label %28, label %29

28:                                               ; preds = %19
  call void @ERR_new()
  call void @ERR_set_debug(ptr noundef @.str, i32 noundef 59, ptr noundef @__func__.OCSP_cert_id_new)
  call void (i32, i32, ptr, ...) @ERR_set_error(i32 noundef 39, i32 noundef 120, ptr noundef null)
  br label %96

29:                                               ; preds = %19
  %30 = load i32, ptr %10, align 4, !tbaa !22
  %31 = call ptr @OBJ_nid2obj(i32 noundef %30)
  %32 = load ptr, ptr %12, align 8, !tbaa !16
  %33 = getelementptr inbounds nuw %struct.X509_algor_st, ptr %32, i32 0, i32 0
  store ptr %31, ptr %33, align 8, !tbaa !18
  %34 = icmp eq ptr %31, null
  br i1 %34, label %35, label %36

35:                                               ; preds = %29
  br label %96

36:                                               ; preds = %29
  %37 = call ptr @ASN1_TYPE_new()
  %38 = load ptr, ptr %12, align 8, !tbaa !16
  %39 = getelementptr inbounds nuw %struct.X509_algor_st, ptr %38, i32 0, i32 1
  store ptr %37, ptr %39, align 8, !tbaa !24
  %40 = icmp eq ptr %37, null
  br i1 %40, label %41, label %42

41:                                               ; preds = %36
  br label %96

42:                                               ; preds = %36
  %43 = load ptr, ptr %12, align 8, !tbaa !16
  %44 = getelementptr inbounds nuw %struct.X509_algor_st, ptr %43, i32 0, i32 1
  %45 = load ptr, ptr %44, align 8, !tbaa !24
  %46 = getelementptr inbounds nuw %struct.asn1_type_st, ptr %45, i32 0, i32 0
  store i32 5, ptr %46, align 8, !tbaa !25
  %47 = load ptr, ptr %7, align 8, !tbaa !10
  %48 = load ptr, ptr %6, align 8, !tbaa !3
  %49 = getelementptr inbounds [64 x i8], ptr %14, i64 0, i64 0
  %50 = call i32 @X509_NAME_digest(ptr noundef %47, ptr noundef %48, ptr noundef %49, ptr noundef %11)
  %51 = icmp ne i32 %50, 0
  br i1 %51, label %53, label %52

52:                                               ; preds = %42
  br label %95

53:                                               ; preds = %42
  %54 = load ptr, ptr %13, align 8, !tbaa !14
  %55 = getelementptr inbounds nuw %struct.ocsp_cert_id_st, ptr %54, i32 0, i32 1
  %56 = getelementptr inbounds [64 x i8], ptr %14, i64 0, i64 0
  %57 = load i32, ptr %11, align 4, !tbaa !22
  %58 = call i32 @ASN1_OCTET_STRING_set(ptr noundef %55, ptr noundef %56, i32 noundef %57)
  %59 = icmp ne i32 %58, 0
  br i1 %59, label %61, label %60

60:                                               ; preds = %53
  br label %96

61:                                               ; preds = %53
  %62 = load ptr, ptr %8, align 8, !tbaa !12
  %63 = getelementptr inbounds nuw %struct.asn1_string_st, ptr %62, i32 0, i32 2
  %64 = load ptr, ptr %63, align 8, !tbaa !27
  %65 = load ptr, ptr %8, align 8, !tbaa !12
  %66 = getelementptr inbounds nuw %struct.asn1_string_st, ptr %65, i32 0, i32 0
  %67 = load i32, ptr %66, align 8, !tbaa !31
  %68 = sext i32 %67 to i64
  %69 = getelementptr inbounds [64 x i8], ptr %14, i64 0, i64 0
  %70 = load ptr, ptr %6, align 8, !tbaa !3
  %71 = call i32 @EVP_Digest(ptr noundef %64, i64 noundef %68, ptr noundef %69, ptr noundef %11, ptr noundef %70, ptr noundef null)
  %72 = icmp ne i32 %71, 0
  br i1 %72, label %74, label %73

73:                                               ; preds = %61
  br label %96

74:                                               ; preds = %61
  %75 = load ptr, ptr %13, align 8, !tbaa !14
  %76 = getelementptr inbounds nuw %struct.ocsp_cert_id_st, ptr %75, i32 0, i32 2
  %77 = getelementptr inbounds [64 x i8], ptr %14, i64 0, i64 0
  %78 = load i32, ptr %11, align 4, !tbaa !22
  %79 = call i32 @ASN1_OCTET_STRING_set(ptr noundef %76, ptr noundef %77, i32 noundef %78)
  %80 = icmp ne i32 %79, 0
  br i1 %80, label %82, label %81

81:                                               ; preds = %74
  br label %96

82:                                               ; preds = %74
  %83 = load ptr, ptr %9, align 8, !tbaa !12
  %84 = icmp ne ptr %83, null
  br i1 %84, label %85, label %93

85:                                               ; preds = %82
  %86 = load ptr, ptr %13, align 8, !tbaa !14
  %87 = getelementptr inbounds nuw %struct.ocsp_cert_id_st, ptr %86, i32 0, i32 3
  %88 = load ptr, ptr %9, align 8, !tbaa !12
  %89 = call i32 @ASN1_STRING_copy(ptr noundef %87, ptr noundef %88)
  %90 = icmp eq i32 %89, 0
  br i1 %90, label %91, label %92

91:                                               ; preds = %85
  br label %96

92:                                               ; preds = %85
  br label %93

93:                                               ; preds = %92, %82
  %94 = load ptr, ptr %13, align 8, !tbaa !14
  store ptr %94, ptr %5, align 8
  store i32 1, ptr %15, align 4
  br label %98

95:                                               ; preds = %52
  call void @ERR_new()
  call void @ERR_set_debug(ptr noundef @.str, i32 noundef 86, ptr noundef @__func__.OCSP_cert_id_new)
  call void (i32, i32, ptr, ...) @ERR_set_error(i32 noundef 39, i32 noundef 102, ptr noundef null)
  br label %96

96:                                               ; preds = %95, %91, %81, %73, %60, %41, %35, %28, %18
  %97 = load ptr, ptr %13, align 8, !tbaa !14
  call void @OCSP_CERTID_free(ptr noundef %97)
  store ptr null, ptr %5, align 8
  store i32 1, ptr %15, align 4
  br label %98

98:                                               ; preds = %96, %93
  call void @llvm.lifetime.end.p0(i64 64, ptr %14) #3
  call void @llvm.lifetime.end.p0(i64 8, ptr %13) #3
  call void @llvm.lifetime.end.p0(i64 8, ptr %12) #3
  call void @llvm.lifetime.end.p0(i64 4, ptr %11) #3
  call void @llvm.lifetime.end.p0(i64 4, ptr %10) #3
  %99 = load ptr, ptr %5, align 8
  ret ptr %99
}