; Function Attrs: nounwind uwtable
define ptr @OCSP_cert_id_new(ptr noundef %0, ptr noundef %1, ptr noundef readonly captures(none) %2, ptr noundef %3) local_unnamed_addr #0 {
  %5 = alloca i32, align 4
  %6 = alloca [64 x i8], align 16
  call void @llvm.lifetime.start.p0(i64 4, ptr nonnull %5) #3
  call void @llvm.lifetime.start.p0(i64 64, ptr nonnull %6) #3
  %7 = tail call ptr @OCSP_CERTID_new() #3
  %8 = icmp eq ptr %7, null
  br i1 %8, label %43, label %9

9:                                                ; preds = %4
  %10 = load ptr, ptr %7, align 8, !tbaa !3
  tail call void @ASN1_OBJECT_free(ptr noundef %10) #3
  %11 = tail call i32 @EVP_MD_get_type(ptr noundef %0) #3
  %12 = icmp eq i32 %11, 0
  br i1 %12, label %13, label %14

13:                                               ; preds = %9
  tail call void @ERR_new() #3
  tail call void @ERR_set_debug(ptr noundef nonnull @.str, i32 noundef 59, ptr noundef nonnull @__func__.OCSP_cert_id_new) #3
  tail call void (i32, i32, ptr, ...) @ERR_set_error(i32 noundef 39, i32 noundef 120, ptr noundef null) #3
  br label %43

14:                                               ; preds = %9
  %15 = tail call ptr @OBJ_nid2obj(i32 noundef %11) #3
  store ptr %15, ptr %7, align 8, !tbaa !3
  %16 = icmp eq ptr %15, null
  br i1 %16, label %43, label %17

17:                                               ; preds = %14
  %18 = tail call ptr @ASN1_TYPE_new() #3
  %19 = getelementptr inbounds nuw i8, ptr %7, i64 8
  store ptr %18, ptr %19, align 8, !tbaa !10
  %20 = icmp eq ptr %18, null
  br i1 %20, label %43, label %21

21:                                               ; preds = %17
  store i32 5, ptr %18, align 8, !tbaa !11
  %22 = call i32 @X509_NAME_digest(ptr noundef %1, ptr noundef %0, ptr noundef nonnull %6, ptr noundef nonnull %5) #3
  %.not = icmp eq i32 %22, 0
  br i1 %.not, label %42, label %23

23:                                               ; preds = %21
  %24 = getelementptr inbounds nuw i8, ptr %7, i64 16
  %25 = load i32, ptr %5, align 4, !tbaa !14
  %26 = call i32 @ASN1_OCTET_STRING_set(ptr noundef nonnull %24, ptr noundef nonnull %6, i32 noundef %25) #3
  %.not23 = icmp eq i32 %26, 0
  br i1 %.not23, label %43, label %27

27:                                               ; preds = %23
  %28 = getelementptr inbounds nuw i8, ptr %2, i64 8
  %29 = load ptr, ptr %28, align 8, !tbaa !15
  %30 = load i32, ptr %2, align 8, !tbaa !19
  %31 = sext i32 %30 to i64
  %32 = call i32 @EVP_Digest(ptr noundef %29, i64 noundef %31, ptr noundef nonnull %6, ptr noundef nonnull %5, ptr noundef %0, ptr noundef null) #3
  %.not24 = icmp eq i32 %32, 0
  br i1 %.not24, label %43, label %33

33:                                               ; preds = %27
  %34 = getelementptr inbounds nuw i8, ptr %7, i64 40
  %35 = load i32, ptr %5, align 4, !tbaa !14
  %36 = call i32 @ASN1_OCTET_STRING_set(ptr noundef nonnull %34, ptr noundef nonnull %6, i32 noundef %35) #3
  %.not25 = icmp eq i32 %36, 0
  br i1 %.not25, label %43, label %37

37:                                               ; preds = %33
  %.not26 = icmp eq ptr %3, null
  br i1 %.not26, label %44, label %38

38:                                               ; preds = %37
  %39 = getelementptr inbounds nuw i8, ptr %7, i64 64
  %40 = call i32 @ASN1_STRING_copy(ptr noundef nonnull %39, ptr noundef nonnull %3) #3
  %41 = icmp eq i32 %40, 0
  br i1 %41, label %43, label %44

42:                                               ; preds = %21
  call void @ERR_new() #3
  call void @ERR_set_debug(ptr noundef nonnull @.str, i32 noundef 86, ptr noundef nonnull @__func__.OCSP_cert_id_new) #3
  call void (i32, i32, ptr, ...) @ERR_set_error(i32 noundef 39, i32 noundef 102, ptr noundef null) #3
  br label %43

43:                                               ; preds = %38, %33, %27, %23, %17, %14, %4, %42, %13
  call void @OCSP_CERTID_free(ptr noundef %7) #3
  br label %44

44:                                               ; preds = %37, %38, %43
  %.0 = phi ptr [ null, %43 ], [ %7, %38 ], [ %7, %37 ]
  call void @llvm.lifetime.end.p0(i64 64, ptr nonnull %6) #3
  call void @llvm.lifetime.end.p0(i64 4, ptr nonnull %5) #3
  ret ptr %.0
}